; Function Attrs: null_pointer_is_valid sspstrong uwtable
define internal fastcc void @dissect_lb_conf(ptr noundef %0, i32 noundef range(i32 16, 21) %1, ptr noundef %2) unnamed_addr #0 {
  %4 = load i32, ptr @hf_slot_num, align 4
  %5 = tail call ptr @proto_tree_add_item(ptr noundef %2, i32 noundef %4, ptr noundef %0, i32 noundef %1, i32 noundef 2, i32 noundef 0)
  %6 = add nuw nsw i32 %1, 2
  %7 = load i32, ptr @hf_machine_num, align 4
  %8 = tail call ptr @proto_tree_add_item(ptr noundef %2, i32 noundef %7, ptr noundef %0, i32 noundef %6, i32 noundef 2, i32 noundef 0)
  %9 = add nuw nsw i32 %1, 4
  %10 = load i32, ptr @hf_seed, align 4
  %11 = tail call ptr @proto_tree_add_item(ptr noundef %2, i32 noundef %10, ptr noundef %0, i32 noundef %9, i32 noundef 4, i32 noundef 0)
  %12 = or disjoint i32 %1, 8
  %13 = load i32, ptr @hf_hash_len, align 4
  %14 = tail call ptr @proto_tree_add_item(ptr noundef %2, i32 noundef %13, ptr noundef %0, i32 noundef %12, i32 noundef 4, i32 noundef 0)
  ret void
}